; Function Attrs: mustprogress nounwind sspstrong willreturn uwtable
define void @_ZN4FLAC8Metadata13VorbisComment5EntryD2Ev(ptr nocapture noundef nonnull align 8 dereferenceable(60) %this) unnamed_addr #14 align 2 personality ptr @__gxx_personality_v0 {
entry:
  store ptr getelementptr inbounds ({ [5 x ptr] }, ptr @_ZTVN4FLAC8Metadata13VorbisComment5EntryE, i64 0, i32 0, i64 2), ptr %this, align 8
  %entry2.i.i = getelementptr inbounds i8, ptr %this, i64 24
  %0 = load ptr, ptr %entry2.i.i, align 8
  %cmp.not.i.i = icmp eq ptr %0, null
  br i1 %cmp.not.i.i, label %_ZN4FLAC8Metadata13VorbisComment5Entry11clear_entryEv.exit.i, label %if.then.i.i

if.then.i.i:                                      ; preds = %entry
  %entry_.i.i = getelementptr inbounds i8, ptr %this, i64 16
  tail call void @free(ptr noundef nonnull %0) #20
  store ptr null, ptr %entry2.i.i, align 8
  store i32 0, ptr %entry_.i.i, align 8
  br label %_ZN4FLAC8Metadata13VorbisComment5Entry11clear_entryEv.exit.i

_ZN4FLAC8Metadata13VorbisComment5Entry11clear_entryEv.exit.i: ; preds = %if.then.i.i, %entry
  %field_name_.i.i = getelementptr inbounds i8, ptr %this, i64 32
  %1 = load ptr, ptr %field_name_.i.i, align 8
  %cmp.not.i1.i = icmp eq ptr %1, null
  br i1 %cmp.not.i1.i, label %_ZN4FLAC8Metadata13VorbisComment5Entry16clear_field_nameEv.exit.i, label %if.then.i2.i

if.then.i2.i:                                     ; preds = %_ZN4FLAC8Metadata13VorbisComment5Entry11clear_entryEv.exit.i
  tail call void @free(ptr noundef nonnull %1) #20
  store ptr null, ptr %field_name_.i.i, align 8
  %field_name_length_.i.i = getelementptr inbounds i8, ptr %this, i64 40
  store i32 0, ptr %field_name_length_.i.i, align 8
  br label %_ZN4FLAC8Metadata13VorbisComment5Entry16clear_field_nameEv.exit.i

_ZN4FLAC8Metadata13VorbisComment5Entry16clear_field_nameEv.exit.i: ; preds = %if.then.i2.i, %_ZN4FLAC8Metadata13VorbisComment5Entry11clear_entryEv.exit.i
  %field_value_.i.i = getelementptr inbounds i8, ptr %this, i64 48
  %2 = load ptr, ptr %field_value_.i.i, align 8
  %cmp.not.i3.i = icmp eq ptr %2, null
  br i1 %cmp.not.i3.i, label %invoke.cont, label %if.then.i4.i

if.then.i4.i:                                     ; preds = %_ZN4FLAC8Metadata13VorbisComment5Entry16clear_field_nameEv.exit.i
  tail call void @free(ptr noundef nonnull %2) #20
  store ptr null, ptr %field_value_.i.i, align 8
  %field_value_length_.i.i = getelementptr inbounds i8, ptr %this, i64 56
  store i32 0, ptr %field_value_length_.i.i, align 8
  br label %invoke.cont

invoke.cont:                                      ; preds = %if.then.i4.i, %_ZN4FLAC8Metadata13VorbisComment5Entry16clear_field_nameEv.exit.i
  %is_valid_.i = getelementptr inbounds i8, ptr %this, i64 8
  store i8 1, ptr %is_valid_.i, align 8
  ret void
}